(dp1
I8
(lp2
(lp3
(lp4
(lp5
(I6
I6
tp6
aa(lp7
(I8
I9
tp8
aa(lp9
(I8
I8
tp10
aa(lp11
(I9
I7
tp12
aa(lp13
(I8
I7
tp14
aa(lp15
(I8
I7
tp16
aa(lp17
(I7
I7
tp18
aa(lp19
(I9
I9
tp20
aa(lp21
(I8
I9
tp22
aa(lp23
(I8
I9
tp24
aa(lp25
(I7
I9
tp26
aaa(lp27
(lp28
(I4
I3
tp29
aa(lp30
g6
aa(lp31
(I4
I1
tp32
aa(lp33
(I12
I0
tp34
aa(lp35
(I10
I0
tp36
aa(lp37
(I2
I0
tp38
aa(lp39
(I0
I0
tp40
aa(lp41
(I12
I3
tp42
aa(lp43
(I11
I6
tp44
aa(lp45
(I1
I6
tp46
aa(lp47
(I0
I3
tp48
aaa(lp49
(lp50
(I4
I4
tp51
aa(lp52
(I8
I11
tp53
aa(lp54
g6
aa(lp55
(I11
I2
tp56
aa(lp57
(I9
I1
tp58
aa(lp59
(I7
I1
tp60
aa(lp61
(I1
I2
tp62
aa(lp63
(I11
I10
tp64
aa(lp65
(I9
I11
tp66
aa(lp67
(I7
I11
tp68
aa(lp69
(I1
I10
tp70
aaa(lp71
(lp72
(I3
I5
tp73
aa(lp74
(I0
I12
tp75
aa(lp76
(I1
I10
tp77
aa(lp78
g6
aa(lp79
(I1
I7
tp80
aa(lp81
(I0
I7
tp82
aa(lp83
(I0
I6
tp84
aa(lp85
(I6
I11
tp86
aa(lp87
(I1
I12
tp88
aa(lp89
(I0
I12
tp90
aa(lp91
(I0
I11
tp92
aaa(lp93
(lp94
(I4
I5
tp95
aa(lp96
(I2
I12
tp97
aa(lp98
(I3
I11
tp99
aa(lp100
(I11
I5
tp101
aa(lp102
g6
aa(lp103
(I1
I6
tp104
aa(lp105
(I0
I5
tp106
aa(lp107
(I11
I12
tp108
aa(lp109
(I9
I12
tp110
aa(lp111
(I0
I12
tp112
aa(lp113
(I0
I12
tp114
aaa(lp115
(lp116
(I4
I5
tp117
aa(lp118
(I10
I12
tp119
aa(lp120
(I5
I11
tp121
aa(lp122
(I12
I5
tp123
aa(lp124
(I11
I6
tp125
aa(lp126
g6
aa(lp127
(I1
I5
tp128
aa(lp129
(I12
I12
tp130
aa(lp131
(I12
I12
tp132
aa(lp133
(I7
I12
tp134
aa(lp135
(I1
I12
tp136
aaa(lp137
(lp138
(I5
I5
tp139
aa(lp140
(I12
I12
tp141
aa(lp142
(I11
I10
tp143
aa(lp144
(I12
I6
tp145
aa(lp146
(I12
I7
tp147
aa(lp148
(I11
I7
tp149
aa(lp150
g6
aa(lp151
(I12
I11
tp152
aa(lp153
(I12
I12
tp154
aa(lp155
(I11
I12
tp156
aa(lp157
(I6
I11
tp158
aaa(lp159
(lp160
(I3
I3
tp161
aa(lp162
(I0
I9
tp163
aa(lp164
(I1
I2
tp165
aa(lp166
(I6
I1
tp167
aa(lp168
(I1
I0
tp169
aa(lp170
(I0
I0
tp171
aa(lp172
(I0
I1
tp173
aa(lp174
g6
aa(lp175
(I1
I9
tp176
aa(lp177
(I0
I9
tp178
aa(lp179
(I0
I6
tp180
aaa(lp181
(lp182
(I4
I3
tp183
aa(lp184
(I1
I6
tp185
aa(lp186
(I3
I1
tp187
aa(lp188
(I11
I0
tp189
aa(lp190
(I3
I0
tp191
aa(lp192
(I0
I0
tp193
aa(lp194
(I0
I0
tp195
aa(lp196
(I11
I3
tp197
aa(lp198
g6
aa(lp199
(I0
I6
tp200
aa(lp201
(I0
I3
tp202
aaa(lp203
(lp204
(I4
I3
tp205
aa(lp206
(I11
I6
tp207
aa(lp208
(I5
I1
tp209
aa(lp210
(I12
I0
tp211
aa(lp212
(I12
I0
tp213
aa(lp214
(I5
I0
tp215
aa(lp216
(I1
I0
tp217
aa(lp218
(I12
I3
tp219
aa(lp220
(I12
I6
tp221
aa(lp222
g6
aa(lp223
(I1
I3
tp224
aaa(lp225
(lp226
(I5
I3
tp227
aa(lp228
(I12
I9
tp229
aa(lp230
(I11
I2
tp231
aa(lp232
(I12
I1
tp233
aa(lp234
(I12
I0
tp235
aa(lp236
(I11
I0
tp237
aa(lp238
(I6
I1
tp239
aa(lp240
(I12
I6
tp241
aa(lp242
(I12
I9
tp243
aa(lp244
(I11
I9
tp245
aa(lp246
g6
aaaasI4
(lp247
(lp248
(lp249
(lp250
g6
aa(lp251
(I8
I9
tp252
aa(lp253
(I8
I8
tp254
aa(lp255
(I9
I7
tp256
aa(lp257
(I7
I7
tp258
aa(lp259
(I9
I9
tp260
aa(lp261
(I7
I9
tp262
aaa(lp263
(lp264
(I4
I3
tp265
aa(lp266
g6
aa(lp267
(I6
I1
tp268
aa(lp269
(I10
I0
tp270
aa(lp271
(I2
I0
tp272
aa(lp273
(I11
I3
tp274
aa(lp275
(I1
I3
tp276
aaa(lp277
(lp278
(I4
I4
tp279
aa(lp280
(I6
I11
tp281
aa(lp282
g6
aa(lp283
(I10
I1
tp284
aa(lp285
(I2
I1
tp286
aa(lp287
(I11
I5
tp288
aa(lp289
(I1
I5
tp290
aaa(lp291
(lp292
(I3
I5
tp293
aa(lp294
(I2
I12
tp295
aa(lp296
(I2
I11
tp297
aa(lp298
g6
aa(lp299
(I1
I6
tp300
aa(lp301
(I9
I11
tp302
aa(lp303
(I0
I11
tp304
aaa(lp305
(lp306
(I5
I5
tp307
aa(lp308
(I10
I12
tp309
aa(lp310
(I10
I11
tp311
aa(lp312
(I11
I6
tp313
aa(lp314
g6
aa(lp315
(I12
I11
tp316
aa(lp317
(I7
I11
tp318
aaa(lp319
(lp320
(I3
I3
tp321
aa(lp322
(I1
I9
tp323
aa(lp324
(I1
I7
tp325
aa(lp326
(I3
I1
tp327
aa(lp328
(I0
I1
tp329
aa(lp330
g6
aa(lp331
(I0
I6
tp332
aaa(lp333
(lp334
(I5
I3
tp335
aa(lp336
(I11
I9
tp337
aa(lp338
(I11
I7
tp339
aa(lp340
(I12
I1
tp341
aa(lp342
(I5
I1
tp343
aa(lp344
(I12
I6
tp345
aa(lp346
g6
aaaa(lp347
(lp348
(lp349
g6
aa(lp350
(I8
I9
tp351
aa(lp352
(I8
I8
tp353
aa(lp354
(I9
I7
tp355
aa(lp356
(I7
I7
tp357
aa(lp358
(I9
I9
tp359
aa(lp360
(I7
I9
tp361
aaa(lp362
(lp363
(I4
I3
tp364
aa(lp365
g6
aa(lp366
(I6
I1
tp367
aa(lp368
(I5
I0
tp369
aa(lp370
(I1
I0
tp371
aa(lp372
(I11
I3
tp373
aa(lp374
(I1
I3
tp375
aaa(lp376
(lp377
(I4
I4
tp378
aa(lp379
(I6
I11
tp380
aa(lp381
g6
aa(lp382
(I5
I1
tp383
aa(lp384
(I1
I2
tp385
aa(lp386
(I11
I5
tp387
aa(lp388
(I1
I10
tp389
aaa(lp390
(lp391
(I3
I5
tp392
aa(lp393
(I7
I12
tp394
aa(lp395
(I7
I11
tp396
aa(lp397
g6
aa(lp398
(I1
I5
tp399
aa(lp400
(I9
I11
tp401
aa(lp402
(I1
I12
tp403
aaa(lp404
(lp405
(I5
I5
tp406
aa(lp407
(I11
I12
tp408
aa(lp409
(I11
I10
tp410
aa(lp411
(I11
I7
tp412
aa(lp413
g6
aa(lp414
(I12
I10
tp415
aa(lp416
(I6
I11
tp417
aaa(lp418
(lp419
(I3
I3
tp420
aa(lp421
(I1
I9
tp422
aa(lp423
(I1
I7
tp424
aa(lp425
(I3
I1
tp426
aa(lp427
(I0
I2
tp428
aa(lp429
g6
aa(lp430
(I0
I9
tp431
aaa(lp432
(lp433
(I5
I3
tp434
aa(lp435
(I11
I9
tp436
aa(lp437
(I11
I2
tp438
aa(lp439
(I11
I0
tp440
aa(lp441
(I6
I1
tp442
aa(lp443
(I12
I3
tp444
aa(lp445
g6
aaaa(lp446
(lp447
(lp448
g6
aa(lp449
(I8
I9
tp450
aa(lp451
(I8
I8
tp452
aa(lp453
(I7
I7
tp454
aa(lp455
(I9
I7
tp456
aa(lp457
(I7
I9
tp458
aa(lp459
(I9
I9
tp460
aaa(lp461
(lp462
(I4
I3
tp463
aa(lp464
g6
aa(lp465
(I6
I1
tp466
aa(lp467
(I3
I0
tp468
aa(lp469
(I11
I0
tp470
aa(lp471
(I1
I3
tp472
aa(lp473
(I11
I3
tp474
aaa(lp475
(lp476
(I4
I4
tp477
aa(lp478
(I6
I11
tp479
aa(lp480
g6
aa(lp481
(I3
I1
tp482
aa(lp483
(I11
I2
tp484
aa(lp485
(I1
I5
tp486
aa(lp487
(I11
I10
tp488
aaa(lp489
(lp490
(I5
I5
tp491
aa(lp492
(I9
I12
tp493
aa(lp494
(I9
I11
tp495
aa(lp496
g6
aa(lp497
(I11
I5
tp498
aa(lp499
(I7
I11
tp500
aa(lp501
(I11
I12
tp502
aaa(lp503
(lp504
(I3
I5
tp505
aa(lp506
(I1
I12
tp507
aa(lp508
(I1
I10
tp509
aa(lp510
(I1
I7
tp511
aa(lp512
g6
aa(lp513
(I0
I10
tp514
aa(lp515
(I6
I11
tp516
aaa(lp517
(lp518
(I5
I3
tp519
aa(lp520
(I11
I9
tp521
aa(lp522
(I11
I7
tp523
aa(lp524
(I5
I1
tp525
aa(lp526
(I12
I2
tp527
aa(lp528
g6
aa(lp529
(I12
I9
tp530
aaa(lp531
(lp532
(I3
I3
tp533
aa(lp534
(I1
I9
tp535
aa(lp536
(I1
I2
tp537
aa(lp538
(I1
I0
tp539
aa(lp540
(I6
I1
tp541
aa(lp542
(I0
I3
tp543
aa(lp544
g6
aaaasI5
(lp545
(lp546
(lp547
(lp548
g6
aa(lp549
(I8
I9
tp550
aa(lp551
(I8
I8
tp552
aa(lp553
(I9
I7
tp554
aa(lp555
(I8
I7
tp556
aa(lp557
(I7
I7
tp558
aa(lp559
(I9
I9
tp560
aa(lp561
(I7
I9
tp562
aaa(lp563
(lp564
(I4
I3
tp565
aa(lp566
g6
aa(lp567
(I4
I1
tp568
aa(lp569
(I12
I1
tp570
aa(lp571
(I4
I0
tp572
aa(lp573
(I0
I1
tp574
aa(lp575
(I11
I6
tp576
aa(lp577
(I1
I6
tp578
aaa(lp579
(lp580
(I4
I4
tp581
aa(lp582
(I8
I11
tp583
aa(lp584
g6
aa(lp585
(I11
I3
tp586
aa(lp587
(I6
I1
tp588
aa(lp589
(I1
I3
tp590
aa(lp591
(I10
I11
tp592
aa(lp593
(I2
I11
tp594
aaa(lp595
(lp596
(I3
I5
tp597
aa(lp598
(I0
I11
tp599
aa(lp600
(I1
I9
tp601
aa(lp602
g6
aa(lp603
(I1
I7
tp604
aa(lp605
(I0
I6
tp606
aa(lp607
(I3
I11
tp608
aa(lp609
(I0
I11
tp610
aaa(lp611
(lp612
(I4
I5
tp613
aa(lp614
(I8
I12
tp615
aa(lp616
(I6
I11
tp617
aa(lp618
(I11
I5
tp619
aa(lp620
g6
aa(lp621
(I1
I5
tp622
aa(lp623
(I10
I12
tp624
aa(lp625
(I2
I12
tp626
aaa(lp627
(lp628
(I5
I5
tp629
aa(lp630
(I12
I11
tp631
aa(lp632
(I11
I9
tp633
aa(lp634
(I12
I6
tp635
aa(lp636
(I11
I7
tp637
aa(lp638
g6
aa(lp639
(I12
I11
tp640
aa(lp641
(I5
I11
tp642
aaa(lp643
(lp644
(I3
I3
tp645
aa(lp646
(I1
I6
tp647
aa(lp648
(I2
I1
tp649
aa(lp650
(I9
I1
tp651
aa(lp652
(I2
I0
tp653
aa(lp654
(I0
I1
tp655
aa(lp656
g6
aa(lp657
(I0
I6
tp658
aaa(lp659
(lp660
(I5
I3
tp661
aa(lp662
(I11
I6
tp663
aa(lp664
(I10
I1
tp665
aa(lp666
(I12
I1
tp667
aa(lp668
(I10
I0
tp669
aa(lp670
(I7
I1
tp671
aa(lp672
(I12
I6
tp673
aa(lp674
g6
aaaa(lp675
(lp676
(lp677
g6
aa(lp678
(I8
I9
tp679
aa(lp680
(I8
I8
tp681
aa(lp682
(I9
I7
tp683
aa(lp684
(I8
I7
tp685
aa(lp686
(I7
I7
tp687
aa(lp688
(I9
I9
tp689
aa(lp690
(I7
I9
tp691
aaa(lp692
(lp693
(I4
I3
tp694
aa(lp695
g6
aa(lp696
(I5
I1
tp697
aa(lp698
(I12
I1
tp699
aa(lp700
(I5
I0
tp701
aa(lp702
(I1
I0
tp703
aa(lp704
(I11
I6
tp705
aa(lp706
(I1
I3
tp707
aaa(lp708
(lp709
(I4
I4
tp710
aa(lp711
(I7
I11
tp712
aa(lp713
g6
aa(lp714
(I11
I3
tp715
aa(lp716
(I6
I1
tp717
aa(lp718
(I1
I2
tp719
aa(lp720
(I10
I11
tp721
aa(lp722
(I1
I10
tp723
aaa(lp724
(lp725
(I3
I5
tp726
aa(lp727
(I0
I11
tp728
aa(lp729
(I1
I9
tp730
aa(lp731
g6
aa(lp732
(I1
I7
tp733
aa(lp734
(I0
I7
tp735
aa(lp736
(I3
I11
tp737
aa(lp738
(I0
I10
tp739
aaa(lp740
(lp741
(I4
I5
tp742
aa(lp743
(I7
I12
tp744
aa(lp745
(I6
I11
tp746
aa(lp747
(I11
I5
tp748
aa(lp749
g6
aa(lp750
(I1
I5
tp751
aa(lp752
(I10
I12
tp753
aa(lp754
(I1
I12
tp755
aaa(lp756
(lp757
(I5
I5
tp758
aa(lp759
(I11
I12
tp760
aa(lp761
(I11
I10
tp762
aa(lp763
(I12
I5
tp764
aa(lp765
(I11
I7
tp766
aa(lp767
g6
aa(lp768
(I12
I12
tp769
aa(lp770
(I6
I11
tp771
aaa(lp772
(lp773
(I3
I3
tp774
aa(lp775
(I1
I6
tp776
aa(lp777
(I2
I1
tp778
aa(lp779
(I9
I1
tp780
aa(lp781
(I2
I0
tp782
aa(lp783
(I0
I0
tp784
aa(lp785
g6
aa(lp786
(I0
I3
tp787
aaa(lp788
(lp789
(I5
I3
tp790
aa(lp791
(I11
I9
tp792
aa(lp793
(I11
I2
tp794
aa(lp795
(I12
I2
tp796
aa(lp797
(I11
I0
tp798
aa(lp799
(I6
I1
tp800
aa(lp801
(I12
I9
tp802
aa(lp803
g6
aaaa(lp804
(lp805
(lp806
g6
aa(lp807
(I8
I9
tp808
aa(lp809
(I8
I8
tp810
aa(lp811
(I7
I7
tp812
aa(lp813
(I8
I7
tp814
aa(lp815
(I9
I7
tp816
aa(lp817
(I7
I9
tp818
aa(lp819
(I9
I9
tp820
aaa(lp821
(lp822
(I4
I3
tp823
aa(lp824
g6
aa(lp825
(I3
I1
tp826
aa(lp827
(I0
I1
tp828
aa(lp829
(I3
I0
tp830
aa(lp831
(I11
I0
tp832
aa(lp833
(I1
I6
tp834
aa(lp835
(I11
I3
tp836
aaa(lp837
(lp838
(I4
I4
tp839
aa(lp840
(I9
I11
tp841
aa(lp842
g6
aa(lp843
(I1
I3
tp844
aa(lp845
(I6
I1
tp846
aa(lp847
(I11
I2
tp848
aa(lp849
(I2
I11
tp850
aa(lp851
(I11
I10
tp852
aaa(lp853
(lp854
(I5
I5
tp855
aa(lp856
(I12
I11
tp857
aa(lp858
(I11
I9
tp859
aa(lp860
g6
aa(lp861
(I11
I7
tp862
aa(lp863
(I12
I7
tp864
aa(lp865
(I5
I11
tp866
aa(lp867
(I12
I10
tp868
aaa(lp869
(lp870
(I4
I5
tp871
aa(lp872
(I9
I12
tp873
aa(lp874
(I6
I11
tp875
aa(lp876
(I1
I5
tp877
aa(lp878
g6
aa(lp879
(I11
I5
tp880
aa(lp881
(I2
I12
tp882
aa(lp883
(I11
I12
tp884
aaa(lp885
(lp886
(I3
I5
tp887
aa(lp888
(I1
I12
tp889
aa(lp890
(I1
I10
tp891
aa(lp892
(I0
I5
tp893
aa(lp894
(I1
I7
tp895
aa(lp896
g6
aa(lp897
(I0
I12
tp898
aa(lp899
(I6
I11
tp900
aaa(lp901
(lp902
(I5
I3
tp903
aa(lp904
(I11
I6
tp905
aa(lp906
(I10
I1
tp907
aa(lp908
(I7
I1
tp909
aa(lp910
(I10
I0
tp911
aa(lp912
(I12
I0
tp913
aa(lp914
g6
aa(lp915
(I12
I3
tp916
aaa(lp917
(lp918
(I3
I3
tp919
aa(lp920
(I1
I9
tp921
aa(lp922
(I1
I2
tp923
aa(lp924
(I0
I2
tp925
aa(lp926
(I1
I0
tp927
aa(lp928
(I6
I1
tp929
aa(lp930
(I0
I9
tp931
aa(lp932
g6
aaaa(lp933
(lp934
(lp935
g6
aa(lp936
(I8
I9
tp937
aa(lp938
(I8
I8
tp939
aa(lp940
(I9
I7
tp941
aa(lp942
(I8
I7
tp943
aa(lp944
(I7
I7
tp945
aa(lp946
(I9
I9
tp947
aa(lp948
(I7
I9
tp949
aaa(lp950
(lp951
(I4
I3
tp952
aa(lp953
g6
aa(lp954
(I5
I1
tp955
aa(lp956
(I12
I1
tp957
aa(lp958
(I10
I0
tp959
aa(lp960
(I2
I0
tp961
aa(lp962
(I11
I6
tp963
aa(lp964
(I1
I3
tp965
aaa(lp966
(lp967
(I4
I4
tp968
aa(lp969
(I7
I11
tp970
aa(lp971
g6
aa(lp972
(I11
I3
tp973
aa(lp974
(I9
I1
tp975
aa(lp976
(I2
I1
tp977
aa(lp978
(I10
I11
tp979
aa(lp980
(I1
I5
tp981
aaa(lp982
(lp983
(I3
I5
tp984
aa(lp985
(I0
I11
tp986
aa(lp987
(I1
I9
tp988
aa(lp989
g6
aa(lp990
(I1
I7
tp991
aa(lp992
(I0
I7
tp993
aa(lp994
(I3
I11
tp995
aa(lp996
(I0
I10
tp997
aaa(lp998
(lp999
(I4
I5
tp1000
aa(lp1001
(I2
I12
tp1002
aa(lp1003
(I3
I11
tp1004
aa(lp1005
(I11
I5
tp1006
aa(lp1007
g6
aa(lp1008
(I1
I6
tp1009
aa(lp1010
(I10
I12
tp1011
aa(lp1012
(I0
I11
tp1013
aaa(lp1014
(lp1015
(I5
I5
tp1016
aa(lp1017
(I10
I12
tp1018
aa(lp1019
(I10
I11
tp1020
aa(lp1021
(I12
I5
tp1022
aa(lp1023
(I11
I6
tp1024
aa(lp1025
g6
aa(lp1026
(I12
I12
tp1027
aa(lp1028
(I7
I11
tp1029
aaa(lp1030
(lp1031
(I3
I3
tp1032
aa(lp1033
(I1
I6
tp1034
aa(lp1035
(I2
I1
tp1036
aa(lp1037
(I9
I1
tp1038
aa(lp1039
(I2
I0
tp1040
aa(lp1041
(I0
I0
tp1042
aa(lp1043
g6
aa(lp1044
(I0
I3
tp1045
aaa(lp1046
(lp1047
(I5
I3
tp1048
aa(lp1049
(I11
I9
tp1050
aa(lp1051
(I11
I7
tp1052
aa(lp1053
(I12
I2
tp1054
aa(lp1055
(I12
I1
tp1056
aa(lp1057
(I5
I1
tp1058
aa(lp1059
(I12
I9
tp1060
aa(lp1061
g6
aaaa(lp1062
(lp1063
(lp1064
g6
aa(lp1065
(I8
I9
tp1066
aa(lp1067
(I8
I8
tp1068
aa(lp1069
(I7
I7
tp1070
aa(lp1071
(I8
I7
tp1072
aa(lp1073
(I9
I7
tp1074
aa(lp1075
(I7
I9
tp1076
aa(lp1077
(I9
I9
tp1078
aaa(lp1079
(lp1080
(I4
I3
tp1081
aa(lp1082
g6
aa(lp1083
(I3
I1
tp1084
aa(lp1085
(I0
I1
tp1086
aa(lp1087
(I2
I0
tp1088
aa(lp1089
(I10
I0
tp1090
aa(lp1091
(I1
I6
tp1092
aa(lp1093
(I11
I3
tp1094
aaa(lp1095
(lp1096
(I4
I4
tp1097
aa(lp1098
(I9
I11
tp1099
aa(lp1100
g6
aa(lp1101
(I1
I3
tp1102
aa(lp1103
(I7
I1
tp1104
aa(lp1105
(I10
I1
tp1106
aa(lp1107
(I2
I11
tp1108
aa(lp1109
(I11
I5
tp1110
aaa(lp1111
(lp1112
(I5
I5
tp1113
aa(lp1114
(I12
I11
tp1115
aa(lp1116
(I11
I9
tp1117
aa(lp1118
g6
aa(lp1119
(I11
I7
tp1120
aa(lp1121
(I12
I7
tp1122
aa(lp1123
(I5
I11
tp1124
aa(lp1125
(I12
I10
tp1126
aaa(lp1127
(lp1128
(I4
I5
tp1129
aa(lp1130
(I10
I12
tp1131
aa(lp1132
(I5
I11
tp1133
aa(lp1134
(I1
I5
tp1135
aa(lp1136
g6
aa(lp1137
(I11
I6
tp1138
aa(lp1139
(I2
I12
tp1140
aa(lp1141
(I12
I11
tp1142
aaa(lp1143
(lp1144
(I3
I5
tp1145
aa(lp1146
(I2
I12
tp1147
aa(lp1148
(I2
I11
tp1149
aa(lp1150
(I0
I5
tp1151
aa(lp1152
(I1
I6
tp1153
aa(lp1154
g6
aa(lp1155
(I0
I12
tp1156
aa(lp1157
(I9
I11
tp1158
aaa(lp1159
(lp1160
(I5
I3
tp1161
aa(lp1162
(I11
I6
tp1163
aa(lp1164
(I10
I1
tp1165
aa(lp1166
(I7
I1
tp1167
aa(lp1168
(I10
I0
tp1169
aa(lp1170
(I12
I0
tp1171
aa(lp1172
g6
aa(lp1173
(I12
I3
tp1174
aaa(lp1175
(lp1176
(I3
I3
tp1177
aa(lp1178
(I1
I9
tp1179
aa(lp1180
(I1
I7
tp1181
aa(lp1182
(I0
I2
tp1183
aa(lp1184
(I0
I1
tp1185
aa(lp1186
(I3
I1
tp1187
aa(lp1188
(I0
I9
tp1189
aa(lp1190
g6
aaaasI6
(lp1191
(lp1192
(lp1193
(lp1194
g6
aa(lp1195
(I8
I9
tp1196
aa(lp1197
(I8
I8
tp1198
aa(lp1199
(I9
I7
tp1200
aa(lp1201
(I8
I7
tp1202
aa(lp1203
(I8
I7
tp1204
aa(lp1205
(I7
I7
tp1206
aa(lp1207
(I9
I9
tp1208
aa(lp1209
(I7
I9
tp1210
aaa(lp1211
(lp1212
(I4
I3
tp1213
aa(lp1214
g6
aa(lp1215
(I4
I1
tp1216
aa(lp1217
(I12
I1
tp1218
aa(lp1219
(I10
I0
tp1220
aa(lp1221
(I2
I0
tp1222
aa(lp1223
(I0
I1
tp1224
aa(lp1225
(I11
I6
tp1226
aa(lp1227
(I1
I6
tp1228
aaa(lp1229
(lp1230
(I4
I4
tp1231
aa(lp1232
(I8
I11
tp1233
aa(lp1234
g6
aa(lp1235
(I11
I3
tp1236
aa(lp1237
(I9
I1
tp1238
aa(lp1239
(I7
I1
tp1240
aa(lp1241
(I1
I3
tp1242
aa(lp1243
(I10
I11
tp1244
aa(lp1245
(I2
I11
tp1246
aaa(lp1247
(lp1248
(I3
I5
tp1249
aa(lp1250
(I0
I11
tp1251
aa(lp1252
(I1
I9
tp1253
aa(lp1254
g6
aa(lp1255
(I1
I7
tp1256
aa(lp1257
(I0
I7
tp1258
aa(lp1259
(I0
I6
tp1260
aa(lp1261
(I3
I11
tp1262
aa(lp1263
(I0
I11
tp1264
aaa(lp1265
(lp1266
(I4
I5
tp1267
aa(lp1268
(I2
I12
tp1269
aa(lp1270
(I3
I11
tp1271
aa(lp1272
(I11
I5
tp1273
aa(lp1274
g6
aa(lp1275
(I1
I6
tp1276
aa(lp1277
(I0
I5
tp1278
aa(lp1279
(I10
I12
tp1280
aa(lp1281
(I0
I12
tp1282
aaa(lp1283
(lp1284
(I4
I5
tp1285
aa(lp1286
(I10
I12
tp1287
aa(lp1288
(I5
I11
tp1289
aa(lp1290
(I12
I5
tp1291
aa(lp1292
(I11
I6
tp1293
aa(lp1294
g6
aa(lp1295
(I1
I5
tp1296
aa(lp1297
(I12
I12
tp1298
aa(lp1299
(I2
I12
tp1300
aaa(lp1301
(lp1302
(I5
I5
tp1303
aa(lp1304
(I12
I11
tp1305
aa(lp1306
(I11
I9
tp1307
aa(lp1308
(I12
I6
tp1309
aa(lp1310
(I12
I7
tp1311
aa(lp1312
(I11
I7
tp1313
aa(lp1314
g6
aa(lp1315
(I12
I11
tp1316
aa(lp1317
(I5
I11
tp1318
aaa(lp1319
(lp1320
(I3
I3
tp1321
aa(lp1322
(I1
I6
tp1323
aa(lp1324
(I2
I1
tp1325
aa(lp1326
(I9
I1
tp1327
aa(lp1328
(I2
I0
tp1329
aa(lp1330
(I0
I0
tp1331
aa(lp1332
(I0
I1
tp1333
aa(lp1334
g6
aa(lp1335
(I0
I6
tp1336
aaa(lp1337
(lp1338
(I5
I3
tp1339
aa(lp1340
(I11
I6
tp1341
aa(lp1342
(I10
I1
tp1343
aa(lp1344
(I12
I1
tp1345
aa(lp1346
(I12
I0
tp1347
aa(lp1348
(I10
I0
tp1349
aa(lp1350
(I7
I1
tp1351
aa(lp1352
(I12
I6
tp1353
aa(lp1354
g6
aaaa(lp1355
(lp1356
(lp1357
g6
aa(lp1358
(I8
I9
tp1359
aa(lp1360
(I8
I8
tp1361
aa(lp1362
(I9
I7
tp1363
aa(lp1364
(I8
I7
tp1365
aa(lp1366
(I8
I7
tp1367
aa(lp1368
(I7
I7
tp1369
aa(lp1370
(I9
I9
tp1371
aa(lp1372
(I7
I9
tp1373
aaa(lp1374
(lp1375
(I4
I3
tp1376
aa(lp1377
g6
aa(lp1378
(I5
I1
tp1379
aa(lp1380
(I12
I1
tp1381
aa(lp1382
(I10
I0
tp1383
aa(lp1384
(I7
I0
tp1385
aa(lp1386
(I1
I0
tp1387
aa(lp1388
(I11
I6
tp1389
aa(lp1390
(I1
I3
tp1391
aaa(lp1392
(lp1393
(I4
I4
tp1394
aa(lp1395
(I7
I11
tp1396
aa(lp1397
g6
aa(lp1398
(I11
I3
tp1399
aa(lp1400
(I9
I1
tp1401
aa(lp1402
(I7
I1
tp1403
aa(lp1404
(I1
I2
tp1405
aa(lp1406
(I10
I11
tp1407
aa(lp1408
(I1
I10
tp1409
aaa(lp1410
(lp1411
(I3
I5
tp1412
aa(lp1413
(I0
I11
tp1414
aa(lp1415
(I1
I9
tp1416
aa(lp1417
g6
aa(lp1418
(I1
I7
tp1419
aa(lp1420
(I0
I7
tp1421
aa(lp1422
(I0
I7
tp1423
aa(lp1424
(I3
I11
tp1425
aa(lp1426
(I0
I10
tp1427
aaa(lp1428
(lp1429
(I4
I5
tp1430
aa(lp1431
(I2
I12
tp1432
aa(lp1433
(I3
I11
tp1434
aa(lp1435
(I11
I5
tp1436
aa(lp1437
g6
aa(lp1438
(I1
I6
tp1439
aa(lp1440
(I0
I5
tp1441
aa(lp1442
(I10
I12
tp1443
aa(lp1444
(I0
I12
tp1445
aaa(lp1446
(lp1447
(I4
I5
tp1448
aa(lp1449
(I5
I12
tp1450
aa(lp1451
(I5
I11
tp1452
aa(lp1453
(I12
I5
tp1454
aa(lp1455
(I11
I6
tp1456
aa(lp1457
g6
aa(lp1458
(I1
I5
tp1459
aa(lp1460
(I12
I12
tp1461
aa(lp1462
(I1
I12
tp1463
aaa(lp1464
(lp1465
(I5
I5
tp1466
aa(lp1467
(I11
I12
tp1468
aa(lp1469
(I11
I10
tp1470
aa(lp1471
(I12
I5
tp1472
aa(lp1473
(I12
I7
tp1474
aa(lp1475
(I11
I7
tp1476
aa(lp1477
g6
aa(lp1478
(I12
I12
tp1479
aa(lp1480
(I6
I11
tp1481
aaa(lp1482
(lp1483
(I3
I3
tp1484
aa(lp1485
(I1
I6
tp1486
aa(lp1487
(I2
I1
tp1488
aa(lp1489
(I9
I1
tp1490
aa(lp1491
(I2
I0
tp1492
aa(lp1493
(I0
I0
tp1494
aa(lp1495
(I0
I0
tp1496
aa(lp1497
g6
aa(lp1498
(I0
I3
tp1499
aaa(lp1500
(lp1501
(I5
I3
tp1502
aa(lp1503
(I11
I9
tp1504
aa(lp1505
(I11
I2
tp1506
aa(lp1507
(I12
I2
tp1508
aa(lp1509
(I12
I0
tp1510
aa(lp1511
(I11
I0
tp1512
aa(lp1513
(I6
I1
tp1514
aa(lp1515
(I12
I9
tp1516
aa(lp1517
g6
aaaa(lp1518
(lp1519
(lp1520
g6
aa(lp1521
(I8
I9
tp1522
aa(lp1523
(I8
I8
tp1524
aa(lp1525
(I7
I7
tp1526
aa(lp1527
(I8
I7
tp1528
aa(lp1529
(I8
I7
tp1530
aa(lp1531
(I9
I7
tp1532
aa(lp1533
(I7
I9
tp1534
aa(lp1535
(I9
I9
tp1536
aaa(lp1537
(lp1538
(I4
I3
tp1539
aa(lp1540
g6
aa(lp1541
(I3
I1
tp1542
aa(lp1543
(I0
I1
tp1544
aa(lp1545
(I2
I0
tp1546
aa(lp1547
(I9
I0
tp1548
aa(lp1549
(I11
I0
tp1550
aa(lp1551
(I1
I6
tp1552
aa(lp1553
(I11
I3
tp1554
aaa(lp1555
(lp1556
(I4
I4
tp1557
aa(lp1558
(I9
I11
tp1559
aa(lp1560
g6
aa(lp1561
(I1
I3
tp1562
aa(lp1563
(I7
I1
tp1564
aa(lp1565
(I9
I1
tp1566
aa(lp1567
(I11
I2
tp1568
aa(lp1569
(I2
I11
tp1570
aa(lp1571
(I11
I10
tp1572
aaa(lp1573
(lp1574
(I5
I5
tp1575
aa(lp1576
(I12
I11
tp1577
aa(lp1578
(I11
I9
tp1579
aa(lp1580
g6
aa(lp1581
(I11
I7
tp1582
aa(lp1583
(I12
I7
tp1584
aa(lp1585
(I12
I7
tp1586
aa(lp1587
(I5
I11
tp1588
aa(lp1589
(I12
I10
tp1590
aaa(lp1591
(lp1592
(I4
I5
tp1593
aa(lp1594
(I10
I12
tp1595
aa(lp1596
(I5
I11
tp1597
aa(lp1598
(I1
I5
tp1599
aa(lp1600
g6
aa(lp1601
(I11
I6
tp1602
aa(lp1603
(I12
I5
tp1604
aa(lp1605
(I2
I12
tp1606
aa(lp1607
(I12
I12
tp1608
aaa(lp1609
(lp1610
(I4
I5
tp1611
aa(lp1612
(I3
I12
tp1613
aa(lp1614
(I3
I11
tp1615
aa(lp1616
(I0
I5
tp1617
aa(lp1618
(I1
I6
tp1619
aa(lp1620
g6
aa(lp1621
(I11
I5
tp1622
aa(lp1623
(I0
I12
tp1624
aa(lp1625
(I11
I12
tp1626
aaa(lp1627
(lp1628
(I3
I5
tp1629
aa(lp1630
(I1
I12
tp1631
aa(lp1632
(I1
I10
tp1633
aa(lp1634
(I0
I5
tp1635
aa(lp1636
(I0
I7
tp1637
aa(lp1638
(I1
I7
tp1639
aa(lp1640
g6
aa(lp1641
(I0
I12
tp1642
aa(lp1643
(I6
I11
tp1644
aaa(lp1645
(lp1646
(I5
I3
tp1647
aa(lp1648
(I11
I6
tp1649
aa(lp1650
(I10
I1
tp1651
aa(lp1652
(I7
I1
tp1653
aa(lp1654
(I10
I0
tp1655
aa(lp1656
(I12
I0
tp1657
aa(lp1658
(I12
I0
tp1659
aa(lp1660
g6
aa(lp1661
(I12
I3
tp1662
aaa(lp1663
(lp1664
(I3
I3
tp1665
aa(lp1666
(I1
I9
tp1667
aa(lp1668
(I1
I2
tp1669
aa(lp1670
(I0
I2
tp1671
aa(lp1672
(I0
I0
tp1673
aa(lp1674
(I1
I0
tp1675
aa(lp1676
(I6
I1
tp1677
aa(lp1678
(I0
I9
tp1679
aa(lp1680
g6
aaaasI7
(lp1681
(lp1682
(lp1683
(lp1684
g6
aa(lp1685
(I8
I9
tp1686
aa(lp1687
(I8
I8
tp1688
aa(lp1689
(I9
I7
tp1690
aa(lp1691
(I8
I7
tp1692
aa(lp1693
(I7
I7
tp1694
aa(lp1695
(I9
I9
tp1696
aa(lp1697
(I8
I9
tp1698
aa(lp1699
(I8
I9
tp1700
aa(lp1701
(I7
I9
tp1702
aaa(lp1703
(lp1704
(I4
I3
tp1705
aa(lp1706
g6
aa(lp1707
(I4
I1
tp1708
aa(lp1709
(I12
I0
tp1710
aa(lp1711
(I4
I0
tp1712
aa(lp1713
(I0
I0
tp1714
aa(lp1715
(I12
I3
tp1716
aa(lp1717
(I11
I6
tp1718
aa(lp1719
(I1
I6
tp1720
aa(lp1721
(I0
I3
tp1722
aaa(lp1723
(lp1724
(I4
I4
tp1725
aa(lp1726
(I8
I11
tp1727
aa(lp1728
g6
aa(lp1729
(I10
I1
tp1730
aa(lp1731
(I8
I1
tp1732
aa(lp1733
(I2
I1
tp1734
aa(lp1735
(I11
I5
tp1736
aa(lp1737
(I9
I11
tp1738
aa(lp1739
(I7
I11
tp1740
aa(lp1741
(I1
I5
tp1742
aaa(lp1743
(lp1744
(I3
I5
tp1745
aa(lp1746
(I0
I12
tp1747
aa(lp1748
(I2
I11
tp1749
aa(lp1750
g6
aa(lp1751
(I1
I6
tp1752
aa(lp1753
(I0
I6
tp1754
aa(lp1755
(I9
I11
tp1756
aa(lp1757
(I2
I12
tp1758
aa(lp1759
(I0
I12
tp1760
aa(lp1761
(I0
I11
tp1762
aaa(lp1763
(lp1764
(I4
I5
tp1765
aa(lp1766
(I8
I12
tp1767
aa(lp1768
(I4
I11
tp1769
aa(lp1770
(I11
I6
tp1771
aa(lp1772
g6
aa(lp1773
(I1
I6
tp1774
aa(lp1775
(I12
I11
tp1776
aa(lp1777
(I10
I12
tp1778
aa(lp1779
(I2
I12
tp1780
aa(lp1781
(I0
I11
tp1782
aaa(lp1783
(lp1784
(I5
I5
tp1785
aa(lp1786
(I12
I12
tp1787
aa(lp1788
(I10
I11
tp1789
aa(lp1790
(I12
I6
tp1791
aa(lp1792
(I11
I6
tp1793
aa(lp1794
g6
aa(lp1795
(I12
I11
tp1796
aa(lp1797
(I12
I12
tp1798
aa(lp1799
(I10
I12
tp1800
aa(lp1801
(I7
I11
tp1802
aaa(lp1803
(lp1804
(I3
I3
tp1805
aa(lp1806
(I0
I9
tp1807
aa(lp1808
(I1
I7
tp1809
aa(lp1810
(I3
I1
tp1811
aa(lp1812
(I0
I1
tp1813
aa(lp1814
(I0
I1
tp1815
aa(lp1816
g6
aa(lp1817
(I1
I9
tp1818
aa(lp1819
(I0
I9
tp1820
aa(lp1821
(I0
I6
tp1822
aaa(lp1823
(lp1824
(I4
I3
tp1825
aa(lp1826
(I1
I6
tp1827
aa(lp1828
(I3
I1
tp1829
aa(lp1830
(I10
I0
tp1831
aa(lp1832
(I2
I0
tp1833
aa(lp1834
(I0
I0
tp1835
aa(lp1836
(I11
I3
tp1837
aa(lp1838
g6
aa(lp1839
(I0
I6
tp1840
aa(lp1841
(I0
I3
tp1842
aaa(lp1843
(lp1844
(I4
I3
tp1845
aa(lp1846
(I11
I6
tp1847
aa(lp1848
(I5
I1
tp1849
aa(lp1850
(I12
I0
tp1851
aa(lp1852
(I10
I0
tp1853
aa(lp1854
(I2
I0
tp1855
aa(lp1856
(I12
I3
tp1857
aa(lp1858
(I12
I6
tp1859
aa(lp1860
g6
aa(lp1861
(I1
I3
tp1862
aaa(lp1863
(lp1864
(I5
I3
tp1865
aa(lp1866
(I12
I9
tp1867
aa(lp1868
(I11
I7
tp1869
aa(lp1870
(I12
I1
tp1871
aa(lp1872
(I12
I1
tp1873
aa(lp1874
(I5
I1
tp1875
aa(lp1876
(I12
I6
tp1877
aa(lp1878
(I12
I9
tp1879
aa(lp1880
(I11
I9
tp1881
aa(lp1882
g6
aaaa(lp1883
(lp1884
(lp1885
g6
aa(lp1886
(I8
I9
tp1887
aa(lp1888
(I8
I8
tp1889
aa(lp1890
(I9
I7
tp1891
aa(lp1892
(I8
I7
tp1893
aa(lp1894
(I7
I7
tp1895
aa(lp1896
(I9
I9
tp1897
aa(lp1898
(I8
I9
tp1899
aa(lp1900
(I8
I9
tp1901
aa(lp1902
(I7
I9
tp1903
aaa(lp1904
(lp1905
(I4
I3
tp1906
aa(lp1907
g6
aa(lp1908
(I4
I1
tp1909
aa(lp1910
(I12
I0
tp1911
aa(lp1912
(I4
I0
tp1913
aa(lp1914
(I0
I0
tp1915
aa(lp1916
(I12
I3
tp1917
aa(lp1918
(I11
I6
tp1919
aa(lp1920
(I1
I6
tp1921
aa(lp1922
(I0
I3
tp1923
aaa(lp1924
(lp1925
(I4
I4
tp1926
aa(lp1927
(I8
I11
tp1928
aa(lp1929
g6
aa(lp1930
(I11
I2
tp1931
aa(lp1932
(I6
I1
tp1933
aa(lp1934
(I1
I2
tp1935
aa(lp1936
(I11
I10
tp1937
aa(lp1938
(I9
I11
tp1939
aa(lp1940
(I7
I11
tp1941
aa(lp1942
(I1
I10
tp1943
aaa(lp1944
(lp1945
(I3
I5
tp1946
aa(lp1947
(I0
I12
tp1948
aa(lp1949
(I1
I10
tp1950
aa(lp1951
g6
aa(lp1952
(I1
I7
tp1953
aa(lp1954
(I0
I6
tp1955
aa(lp1956
(I6
I11
tp1957
aa(lp1958
(I1
I12
tp1959
aa(lp1960
(I0
I12
tp1961
aa(lp1962
(I0
I11
tp1963
aaa(lp1964
(lp1965
(I4
I5
tp1966
aa(lp1967
(I8
I12
tp1968
aa(lp1969
(I6
I11
tp1970
aa(lp1971
(I11
I5
tp1972
aa(lp1973
g6
aa(lp1974
(I1
I5
tp1975
aa(lp1976
(I11
I12
tp1977
aa(lp1978
(I9
I12
tp1979
aa(lp1980
(I7
I12
tp1981
aa(lp1982
(I1
I12
tp1983
aaa(lp1984
(lp1985
(I5
I5
tp1986
aa(lp1987
(I12
I12
tp1988
aa(lp1989
(I11
I10
tp1990
aa(lp1991
(I12
I6
tp1992
aa(lp1993
(I11
I7
tp1994
aa(lp1995
g6
aa(lp1996
(I12
I11
tp1997
aa(lp1998
(I12
I12
tp1999
aa(lp2000
(I11
I12
tp2001
aa(lp2002
(I6
I11
tp2003
aaa(lp2004
(lp2005
(I3
I3
tp2006
aa(lp2007
(I0
I9
tp2008
aa(lp2009
(I1
I2
tp2010
aa(lp2011
(I6
I1
tp2012
aa(lp2013
(I1
I0
tp2014
aa(lp2015
(I0
I1
tp2016
aa(lp2017
g6
aa(lp2018
(I1
I9
tp2019
aa(lp2020
(I0
I9
tp2021
aa(lp2022
(I0
I6
tp2023
aaa(lp2024
(lp2025
(I4
I3
tp2026
aa(lp2027
(I1
I6
tp2028
aa(lp2029
(I3
I1
tp2030
aa(lp2031
(I11
I0
tp2032
aa(lp2033
(I3
I0
tp2034
aa(lp2035
(I0
I0
tp2036
aa(lp2037
(I11
I3
tp2038
aa(lp2039
g6
aa(lp2040
(I0
I6
tp2041
aa(lp2042
(I0
I3
tp2043
aaa(lp2044
(lp2045
(I4
I3
tp2046
aa(lp2047
(I11
I6
tp2048
aa(lp2049
(I5
I1
tp2050
aa(lp2051
(I12
I0
tp2052
aa(lp2053
(I5
I0
tp2054
aa(lp2055
(I1
I0
tp2056
aa(lp2057
(I12
I3
tp2058
aa(lp2059
(I12
I6
tp2060
aa(lp2061
g6
aa(lp2062
(I1
I3
tp2063
aaa(lp2064
(lp2065
(I5
I3
tp2066
aa(lp2067
(I12
I9
tp2068
aa(lp2069
(I11
I2
tp2070
aa(lp2071
(I12
I1
tp2072
aa(lp2073
(I11
I0
tp2074
aa(lp2075
(I6
I1
tp2076
aa(lp2077
(I12
I6
tp2078
aa(lp2079
(I12
I9
tp2080
aa(lp2081
(I11
I9
tp2082
aa(lp2083
g6
aaaa(lp2084
(lp2085
(lp2086
g6
aa(lp2087
(I8
I9
tp2088
aa(lp2089
(I8
I8
tp2090
aa(lp2091
(I9
I7
tp2092
aa(lp2093
(I8
I7
tp2094
aa(lp2095
(I7
I7
tp2096
aa(lp2097
(I9
I9
tp2098
aa(lp2099
(I8
I9
tp2100
aa(lp2101
(I8
I9
tp2102
aa(lp2103
(I7
I9
tp2104
aaa(lp2105
(lp2106
(I4
I3
tp2107
aa(lp2108
g6
aa(lp2109
(I4
I1
tp2110
aa(lp2111
(I12
I0
tp2112
aa(lp2113
(I5
I0
tp2114
aa(lp2115
(I1
I0
tp2116
aa(lp2117
(I12
I3
tp2118
aa(lp2119
(I11
I6
tp2120
aa(lp2121
(I1
I6
tp2122
aa(lp2123
(I0
I3
tp2124
aaa(lp2125
(lp2126
(I4
I4
tp2127
aa(lp2128
(I8
I11
tp2129
aa(lp2130
g6
aa(lp2131
(I11
I2
tp2132
aa(lp2133
(I9
I1
tp2134
aa(lp2135
(I2
I1
tp2136
aa(lp2137
(I11
I10
tp2138
aa(lp2139
(I9
I11
tp2140
aa(lp2141
(I7
I11
tp2142
aa(lp2143
(I1
I5
tp2144
aaa(lp2145
(lp2146
(I3
I5
tp2147
aa(lp2148
(I0
I12
tp2149
aa(lp2150
(I1
I10
tp2151
aa(lp2152
g6
aa(lp2153
(I1
I7
tp2154
aa(lp2155
(I0
I7
tp2156
aa(lp2157
(I6
I11
tp2158
aa(lp2159
(I1
I12
tp2160
aa(lp2161
(I0
I12
tp2162
aa(lp2163
(I0
I10
tp2164
aaa(lp2165
(lp2166
(I4
I5
tp2167
aa(lp2168
(I7
I12
tp2169
aa(lp2170
(I3
I11
tp2171
aa(lp2172
(I11
I5
tp2173
aa(lp2174
g6
aa(lp2175
(I1
I6
tp2176
aa(lp2177
(I11
I12
tp2178
aa(lp2179
(I9
I12
tp2180
aa(lp2181
(I1
I12
tp2182
aa(lp2183
(I0
I11
tp2184
aaa(lp2185
(lp2186
(I5
I5
tp2187
aa(lp2188
(I11
I12
tp2189
aa(lp2190
(I10
I11
tp2191
aa(lp2192
(I12
I5
tp2193
aa(lp2194
(I11
I6
tp2195
aa(lp2196
g6
aa(lp2197
(I12
I12
tp2198
aa(lp2199
(I12
I12
tp2200
aa(lp2201
(I9
I12
tp2202
aa(lp2203
(I7
I11
tp2204
aaa(lp2205
(lp2206
(I3
I3
tp2207
aa(lp2208
(I0
I9
tp2209
aa(lp2210
(I1
I2
tp2211
aa(lp2212
(I6
I1
tp2213
aa(lp2214
(I1
I0
tp2215
aa(lp2216
(I0
I0
tp2217
aa(lp2218
g6
aa(lp2219
(I1
I9
tp2220
aa(lp2221
(I0
I9
tp2222
aa(lp2223
(I0
I3
tp2224
aaa(lp2225
(lp2226
(I4
I3
tp2227
aa(lp2228
(I1
I6
tp2229
aa(lp2230
(I3
I1
tp2231
aa(lp2232
(I11
I0
tp2233
aa(lp2234
(I3
I0
tp2235
aa(lp2236
(I0
I0
tp2237
aa(lp2238
(I11
I3
tp2239
aa(lp2240
g6
aa(lp2241
(I0
I6
tp2242
aa(lp2243
(I0
I3
tp2244
aaa(lp2245
(lp2246
(I4
I3
tp2247
aa(lp2248
(I11
I6
tp2249
aa(lp2250
(I5
I1
tp2251
aa(lp2252
(I12
I0
tp2253
aa(lp2254
(I11
I0
tp2255
aa(lp2256
(I3
I0
tp2257
aa(lp2258
(I12
I3
tp2259
aa(lp2260
(I12
I6
tp2261
aa(lp2262
g6
aa(lp2263
(I1
I3
tp2264
aaa(lp2265
(lp2266
(I5
I3
tp2267
aa(lp2268
(I12
I9
tp2269
aa(lp2270
(I11
I7
tp2271
aa(lp2272
(I12
I2
tp2273
aa(lp2274
(I12
I1
tp2275
aa(lp2276
(I5
I1
tp2277
aa(lp2278
(I12
I9
tp2279
aa(lp2280
(I12
I9
tp2281
aa(lp2282
(I11
I9
tp2283
aa(lp2284
g6
aaaa(lp2285
(lp2286
(lp2287
g6
aa(lp2288
(I8
I9
tp2289
aa(lp2290
(I8
I8
tp2291
aa(lp2292
(I7
I7
tp2293
aa(lp2294
(I8
I7
tp2295
aa(lp2296
(I9
I7
tp2297
aa(lp2298
(I7
I9
tp2299
aa(lp2300
(I8
I9
tp2301
aa(lp2302
(I8
I9
tp2303
aa(lp2304
(I9
I9
tp2305
aaa(lp2306
(lp2307
(I4
I3
tp2308
aa(lp2309
g6
aa(lp2310
(I4
I1
tp2311
aa(lp2312
(I0
I0
tp2313
aa(lp2314
(I3
I0
tp2315
aa(lp2316
(I11
I0
tp2317
aa(lp2318
(I0
I3
tp2319
aa(lp2320
(I1
I6
tp2321
aa(lp2322
(I11
I6
tp2323
aa(lp2324
(I12
I3
tp2325
aaa(lp2326
(lp2327
(I4
I4
tp2328
aa(lp2329
(I8
I11
tp2330
aa(lp2331
g6
aa(lp2332
(I1
I2
tp2333
aa(lp2334
(I7
I1
tp2335
aa(lp2336
(I10
I1
tp2337
aa(lp2338
(I1
I10
tp2339
aa(lp2340
(I7
I11
tp2341
aa(lp2342
(I9
I11
tp2343
aa(lp2344
(I11
I5
tp2345
aaa(lp2346
(lp2347
(I5
I5
tp2348
aa(lp2349
(I12
I12
tp2350
aa(lp2351
(I11
I10
tp2352
aa(lp2353
g6
aa(lp2354
(I11
I7
tp2355
aa(lp2356
(I12
I7
tp2357
aa(lp2358
(I6
I11
tp2359
aa(lp2360
(I11
I12
tp2361
aa(lp2362
(I12
I12
tp2363
aa(lp2364
(I12
I10
tp2365
aaa(lp2366
(lp2367
(I4
I5
tp2368
aa(lp2369
(I9
I12
tp2370
aa(lp2371
(I5
I11
tp2372
aa(lp2373
(I1
I5
tp2374
aa(lp2375
g6
aa(lp2376
(I11
I6
tp2377
aa(lp2378
(I1
I12
tp2379
aa(lp2380
(I7
I12
tp2381
aa(lp2382
(I11
I12
tp2383
aa(lp2384
(I12
I11
tp2385
aaa(lp2386
(lp2387
(I3
I5
tp2388
aa(lp2389
(I1
I12
tp2390
aa(lp2391
(I2
I11
tp2392
aa(lp2393
(I0
I5
tp2394
aa(lp2395
(I1
I6
tp2396
aa(lp2397
g6
aa(lp2398
(I0
I12
tp2399
aa(lp2400
(I0
I12
tp2401
aa(lp2402
(I7
I12
tp2403
aa(lp2404
(I9
I11
tp2405
aaa(lp2406
(lp2407
(I5
I3
tp2408
aa(lp2409
(I12
I9
tp2410
aa(lp2411
(I11
I2
tp2412
aa(lp2413
(I6
I1
tp2414
aa(lp2415
(I11
I0
tp2416
aa(lp2417
(I12
I0
tp2418
aa(lp2419
g6
aa(lp2420
(I11
I9
tp2421
aa(lp2422
(I12
I9
tp2423
aa(lp2424
(I12
I3
tp2425
aaa(lp2426
(lp2427
(I4
I3
tp2428
aa(lp2429
(I11
I6
tp2430
aa(lp2431
(I5
I1
tp2432
aa(lp2433
(I1
I0
tp2434
aa(lp2435
(I5
I0
tp2436
aa(lp2437
(I12
I0
tp2438
aa(lp2439
(I1
I3
tp2440
aa(lp2441
g6
aa(lp2442
(I12
I6
tp2443
aa(lp2444
(I12
I3
tp2445
aaa(lp2446
(lp2447
(I4
I3
tp2448
aa(lp2449
(I1
I6
tp2450
aa(lp2451
(I3
I1
tp2452
aa(lp2453
(I0
I0
tp2454
aa(lp2455
(I1
I0
tp2456
aa(lp2457
(I5
I0
tp2458
aa(lp2459
(I0
I3
tp2460
aa(lp2461
(I0
I6
tp2462
aa(lp2463
g6
aa(lp2464
(I11
I3
tp2465
aaa(lp2466
(lp2467
(I3
I3
tp2468
aa(lp2469
(I0
I9
tp2470
aa(lp2471
(I1
I7
tp2472
aa(lp2473
(I0
I2
tp2474
aa(lp2475
(I0
I1
tp2476
aa(lp2477
(I3
I1
tp2478
aa(lp2479
(I0
I9
tp2480
aa(lp2481
(I0
I9
tp2482
aa(lp2483
(I1
I9
tp2484
aa(lp2485
g6
aaaas.